; Function Attrs: nounwind uwtable
define internal ptr @fire_event_py_yield(ptr readnone captures(none) %0, ptr noundef %1) #0 {
  %3 = alloca ptr, align 8
  %4 = alloca i32, align 4
  %5 = alloca ptr, align 8
  call void @llvm.lifetime.start.p0(i64 8, ptr nonnull %3) #4
  call void @llvm.lifetime.start.p0(i64 4, ptr nonnull %4) #4
  call void @llvm.lifetime.start.p0(i64 8, ptr nonnull %5) #4
  %6 = call i32 (ptr, ptr, ...) @PyArg_ParseTuple(ptr noundef %1, ptr noundef nonnull @.str.35, ptr noundef nonnull %3, ptr noundef nonnull %4, ptr noundef nonnull %5) #4
  %.not = icmp eq i32 %6, 0
  br i1 %.not, label %42, label %7

7:                                                ; preds = %2
  %8 = load ptr, ptr %3, align 8, !tbaa !32
  %9 = load i32, ptr %4, align 4, !tbaa !29
  %10 = getelementptr i8, ptr %8, i64 8
  %.val14.i = load ptr, ptr %10, align 8, !tbaa !14
  %.not.i = icmp eq ptr %.val14.i, @PyCodeLike_Type
  br i1 %.not.i, label %15, label %setup_fire.exit.thread

setup_fire.exit.thread:                           ; preds = %7
  %11 = load ptr, ptr @PyExc_TypeError, align 8, !tbaa !32
  %12 = getelementptr inbounds nuw i8, ptr %.val14.i, i64 24
  %13 = load ptr, ptr %12, align 8, !tbaa !33
  %14 = call ptr (ptr, ptr, ...) @PyErr_Format(ptr noundef %11, ptr noundef nonnull @.str.32, ptr noundef %13) #4
  br label %42

15:                                               ; preds = %7
  %16 = icmp sgt i32 %9, -1
  br i1 %16, label %17, label %21

17:                                               ; preds = %15
  %18 = getelementptr inbounds nuw i8, ptr %8, i64 32
  %19 = load i32, ptr %18, align 8, !tbaa !24
  %20 = icmp slt i32 %9, %19
  br i1 %20, label %setup_fire.exit, label %21

21:                                               ; preds = %17, %15
  call void @__assert_fail(ptr noundef nonnull @.str.33, ptr noundef nonnull @.str.30, i32 noundef 120, ptr noundef nonnull @__PRETTY_FUNCTION__.setup_fire) #5
  unreachable

setup_fire.exit:                                  ; preds = %17
  %22 = getelementptr inbounds nuw i8, ptr %8, i64 16
  %23 = load ptr, ptr %22, align 8, !tbaa !6
  %24 = zext nneg i32 %9 to i64
  %25 = getelementptr %struct._PyMonitoringState, ptr %23, i64 %24
  %26 = icmp eq ptr %25, null
  br i1 %26, label %42, label %27

27:                                               ; preds = %setup_fire.exit
  %28 = load i8, ptr %25, align 1, !tbaa !27
  %.not.i13 = icmp eq i8 %28, 0
  br i1 %.not.i13, label %PyMonitoring_FirePyYieldEvent.exit.thread, label %PyMonitoring_FirePyYieldEvent.exit

PyMonitoring_FirePyYieldEvent.exit:               ; preds = %27
  %29 = load ptr, ptr %5, align 8, !tbaa !32
  %30 = call i32 @_PyMonitoring_FirePyYieldEvent(ptr noundef nonnull %25, ptr noundef nonnull %8, i32 noundef %9, ptr noundef %29) #4
  %31 = icmp eq i32 %30, -1
  br i1 %31, label %teardown_fire.exit.thread, label %PyMonitoring_FirePyYieldEvent.exit.thread

PyMonitoring_FirePyYieldEvent.exit.thread:        ; preds = %27, %PyMonitoring_FirePyYieldEvent.exit
  %32 = call ptr @PyErr_Occurred() #4
  %.not5.i = icmp eq ptr %32, null
  br i1 %.not5.i, label %teardown_fire.exit, label %33

33:                                               ; preds = %PyMonitoring_FirePyYieldEvent.exit.thread
  call void @__assert_fail(ptr noundef nonnull @.str.31, ptr noundef nonnull @.str.30, i32 noundef 141, ptr noundef nonnull @__PRETTY_FUNCTION__.teardown_fire) #5
  unreachable

teardown_fire.exit:                               ; preds = %PyMonitoring_FirePyYieldEvent.exit.thread
  call void @PyErr_Clear() #4
  %34 = load i8, ptr %25, align 1, !tbaa !27
  %35 = call ptr @PyErr_Occurred() #4
  %.not11 = icmp eq ptr %35, null
  br i1 %.not11, label %39, label %38

teardown_fire.exit.thread:                        ; preds = %PyMonitoring_FirePyYieldEvent.exit
  %36 = call ptr @PyErr_Occurred() #4
  %.not12 = icmp eq ptr %36, null
  br i1 %.not12, label %37, label %42

37:                                               ; preds = %teardown_fire.exit.thread
  call void @__assert_fail(ptr noundef nonnull @.str.29, ptr noundef nonnull @.str.30, i32 noundef 232, ptr noundef nonnull @__PRETTY_FUNCTION__.fire_event_py_yield) #5
  unreachable

38:                                               ; preds = %teardown_fire.exit
  call void @__assert_fail(ptr noundef nonnull @.str.31, ptr noundef nonnull @.str.30, i32 noundef 232, ptr noundef nonnull @__PRETTY_FUNCTION__.fire_event_py_yield) #5
  unreachable

39:                                               ; preds = %teardown_fire.exit
  %40 = zext i8 %34 to i64
  %41 = call ptr @PyLong_FromLong(i64 noundef %40) #4
  br label %42

42:                                               ; preds = %setup_fire.exit.thread, %setup_fire.exit, %teardown_fire.exit.thread, %39, %2
  %.0 = phi ptr [ null, %2 ], [ null, %setup_fire.exit ], [ %41, %39 ], [ null, %teardown_fire.exit.thread ], [ null, %setup_fire.exit.thread ]
  call void @llvm.lifetime.end.p0(i64 8, ptr nonnull %5) #4
  call void @llvm.lifetime.end.p0(i64 4, ptr nonnull %4) #4
  call void @llvm.lifetime.end.p0(i64 8, ptr nonnull %3) #4
  ret ptr %.0
}